; Function Attrs: nounwind uwtable
define range(i32 -12, 1) i32 @ff_set_common_channel_layouts2(ptr noundef readonly captures(none) %0, ptr noundef readonly captures(none) %1, ptr noundef readonly captures(none) %2, ptr noundef %3) local_unnamed_addr #3 {
  %5 = alloca ptr, align 8
  %6 = alloca ptr, align 8
  %7 = alloca ptr, align 8
  store ptr %3, ptr %7, align 8, !tbaa !33
  %.not = icmp eq ptr %3, null
  br i1 %.not, label %74, label %.preheader77

.preheader77:                                     ; preds = %4
  %8 = getelementptr inbounds nuw i8, ptr %0, i64 40
  %9 = load i32, ptr %8, align 8, !tbaa !66
  %.not81 = icmp eq i32 %9, 0
  br i1 %.not81, label %.preheader, label %.lr.ph

.lr.ph:                                           ; preds = %.preheader77
  %10 = getelementptr inbounds nuw i8, ptr %0, i64 32
  %11 = getelementptr inbounds nuw i8, ptr %3, i64 24
  %12 = getelementptr inbounds nuw i8, ptr %3, i64 16
  br label %18

.preheader:                                       ; preds = %.thread, %.preheader77
  %13 = getelementptr inbounds nuw i8, ptr %0, i64 64
  %14 = load i32, ptr %13, align 8, !tbaa !75
  %.not82 = icmp eq i32 %14, 0
  br i1 %.not82, label %._crit_edge, label %.lr.ph80

.lr.ph80:                                         ; preds = %.preheader
  %15 = getelementptr inbounds nuw i8, ptr %0, i64 56
  %16 = getelementptr inbounds nuw i8, ptr %3, i64 24
  %17 = getelementptr inbounds nuw i8, ptr %3, i64 16
  br label %44

18:                                               ; preds = %.lr.ph, %.thread
  %19 = phi i32 [ %9, %.lr.ph ], [ %41, %.thread ]
  %indvars.iv = phi i64 [ 0, %.lr.ph ], [ %indvars.iv.next, %.thread ]
  %20 = getelementptr inbounds nuw ptr, ptr %1, i64 %indvars.iv
  %21 = load ptr, ptr %20, align 8, !tbaa !100
  %22 = getelementptr inbounds nuw i8, ptr %21, i64 16
  %23 = load ptr, ptr %22, align 8, !tbaa !102
  %.not43 = icmp eq ptr %23, null
  br i1 %.not43, label %24, label %.thread

24:                                               ; preds = %18
  %25 = load ptr, ptr %10, align 8, !tbaa !76
  %26 = getelementptr inbounds nuw ptr, ptr %25, i64 %indvars.iv
  %27 = load ptr, ptr %26, align 8, !tbaa !77
  %28 = getelementptr inbounds nuw i8, ptr %27, i64 32
  %29 = load i32, ptr %28, align 8, !tbaa !4
  %30 = icmp eq i32 %29, 1
  br i1 %30, label %31, label %.thread

31:                                               ; preds = %24
  call void @llvm.lifetime.start.p0(i64 8, ptr nonnull %6)
  store ptr %3, ptr %6, align 8, !tbaa !33
  %32 = load ptr, ptr %11, align 8, !tbaa !47
  %33 = load i32, ptr %12, align 8, !tbaa !46
  %34 = add i32 %33, 1
  %35 = zext i32 %34 to i64
  %36 = tail call ptr @av_realloc_array(ptr noundef %32, i64 noundef 8, i64 noundef %35) #10
  %.not6.i = icmp eq ptr %36, null
  br i1 %.not6.i, label %.thread59, label %.thread56

.thread56:                                        ; preds = %31
  store ptr %36, ptr %11, align 8, !tbaa !47
  %37 = load i32, ptr %12, align 8, !tbaa !46
  %38 = add i32 %37, 1
  store i32 %38, ptr %12, align 8, !tbaa !46
  %39 = zext i32 %37 to i64
  %40 = getelementptr inbounds nuw ptr, ptr %36, i64 %39
  store ptr %22, ptr %40, align 8, !tbaa !48
  store ptr %3, ptr %22, align 8, !tbaa !33
  call void @llvm.lifetime.end.p0(i64 8, ptr nonnull %6)
  %.pre = load i32, ptr %8, align 8, !tbaa !66
  br label %.thread

.thread59:                                        ; preds = %31
  call void @ff_channel_layouts_unref(ptr noundef nonnull %6)
  call void @llvm.lifetime.end.p0(i64 8, ptr nonnull %6)
  br label %74

.thread:                                          ; preds = %18, %24, %.thread56
  %41 = phi i32 [ %19, %18 ], [ %19, %24 ], [ %.pre, %.thread56 ]
  %indvars.iv.next = add nuw nsw i64 %indvars.iv, 1
  %42 = zext i32 %41 to i64
  %43 = icmp samesign ult i64 %indvars.iv.next, %42
  br i1 %43, label %18, label %.preheader, !llvm.loop !103

44:                                               ; preds = %.lr.ph80, %.thread65
  %45 = phi i32 [ %14, %.lr.ph80 ], [ %67, %.thread65 ]
  %indvars.iv84 = phi i64 [ 0, %.lr.ph80 ], [ %indvars.iv.next85, %.thread65 ]
  %46 = getelementptr inbounds nuw ptr, ptr %2, i64 %indvars.iv84
  %47 = load ptr, ptr %46, align 8, !tbaa !100
  %48 = getelementptr inbounds nuw i8, ptr %47, i64 16
  %49 = load ptr, ptr %48, align 8, !tbaa !102
  %.not44 = icmp eq ptr %49, null
  br i1 %.not44, label %50, label %.thread65

50:                                               ; preds = %44
  %51 = load ptr, ptr %15, align 8, !tbaa !81
  %52 = getelementptr inbounds nuw ptr, ptr %51, i64 %indvars.iv84
  %53 = load ptr, ptr %52, align 8, !tbaa !77
  %54 = getelementptr inbounds nuw i8, ptr %53, i64 32
  %55 = load i32, ptr %54, align 8, !tbaa !4
  %56 = icmp eq i32 %55, 1
  br i1 %56, label %57, label %.thread65

57:                                               ; preds = %50
  call void @llvm.lifetime.start.p0(i64 8, ptr nonnull %5)
  store ptr %3, ptr %5, align 8, !tbaa !33
  %58 = load ptr, ptr %16, align 8, !tbaa !47
  %59 = load i32, ptr %17, align 8, !tbaa !46
  %60 = add i32 %59, 1
  %61 = zext i32 %60 to i64
  %62 = tail call ptr @av_realloc_array(ptr noundef %58, i64 noundef 8, i64 noundef %61) #10
  %.not6.i50 = icmp eq ptr %62, null
  br i1 %.not6.i50, label %70, label %.thread69

.thread69:                                        ; preds = %57
  store ptr %62, ptr %16, align 8, !tbaa !47
  %63 = load i32, ptr %17, align 8, !tbaa !46
  %64 = add i32 %63, 1
  store i32 %64, ptr %17, align 8, !tbaa !46
  %65 = zext i32 %63 to i64
  %66 = getelementptr inbounds nuw ptr, ptr %62, i64 %65
  store ptr %48, ptr %66, align 8, !tbaa !48
  store ptr %3, ptr %48, align 8, !tbaa !33
  call void @llvm.lifetime.end.p0(i64 8, ptr nonnull %5)
  %.pre87 = load i32, ptr %13, align 8, !tbaa !75
  br label %.thread65

.thread65:                                        ; preds = %44, %50, %.thread69
  %67 = phi i32 [ %45, %44 ], [ %45, %50 ], [ %.pre87, %.thread69 ]
  %indvars.iv.next85 = add nuw nsw i64 %indvars.iv84, 1
  %68 = zext i32 %67 to i64
  %69 = icmp samesign ult i64 %indvars.iv.next85, %68
  br i1 %69, label %44, label %._crit_edge, !llvm.loop !104

70:                                               ; preds = %57
  call void @ff_channel_layouts_unref(ptr noundef nonnull %5)
  call void @llvm.lifetime.end.p0(i64 8, ptr nonnull %5)
  br label %74

._crit_edge:                                      ; preds = %.thread65, %.preheader
  %71 = getelementptr inbounds nuw i8, ptr %3, i64 16
  %72 = load i32, ptr %71, align 8, !tbaa !46
  %.not45 = icmp eq i32 %72, 0
  br i1 %.not45, label %73, label %74

73:                                               ; preds = %._crit_edge
  call void @ff_channel_layouts_unref(ptr noundef nonnull %7)
  br label %74

74:                                               ; preds = %70, %.thread59, %._crit_edge, %73, %4
  %.0 = phi i32 [ -12, %70 ], [ -12, %4 ], [ 0, %73 ], [ 0, %._crit_edge ], [ -12, %.thread59 ]
  ret i32 %.0
}